target datalayout = "e-m:e-p270:32:32-p271:32:32-p272:64:64-i64:64-i128:128-f80:128-n8:16:32:64-S128"
target triple = "x86_64-pc-linux-gnu"

%struct._object = type { %union.anon, ptr }
%union.anon = type { i64 }
%struct._typeobject = type { %struct.PyVarObject, ptr, i64, i64, ptr, i64, ptr, ptr, ptr, ptr, ptr, ptr, ptr, ptr, ptr, ptr, ptr, ptr, ptr, i64, ptr, ptr, ptr, ptr, i64, ptr, ptr, ptr, ptr, ptr, ptr, ptr, ptr, ptr, i64, ptr, ptr, ptr, ptr, ptr, ptr, ptr, ptr, ptr, ptr, ptr, i32, ptr, ptr, i8, i16 }
%struct.PyVarObject = type { %struct._object, i64 }
%struct.itemgetterobject = type { %struct._object, i64, ptr, i64, ptr }

@.str.74 = private unnamed_addr constant [8 x i8] c"%s(...)\00", align 1
@.str.75 = private unnamed_addr constant [7 x i8] c"%s(%R)\00", align 1
@.str.76 = private unnamed_addr constant [5 x i8] c"%s%R\00", align 1

; Function Attrs: inlinehint nounwind uwtable
define internal ptr @_Py_TYPE(ptr noundef %0) #3 {
  %2 = alloca ptr, align 8
  store ptr %0, ptr %2, align 8, !tbaa !4
  %3 = load ptr, ptr %2, align 8, !tbaa !4
  %4 = getelementptr inbounds nuw %struct._object, ptr %3, i32 0, i32 1
  %5 = load ptr, ptr %4, align 8, !tbaa !38
  ret ptr %5
}

; Function Attrs: nounwind uwtable
define internal ptr @itemgetter_repr(ptr noundef %0) #0 {
  %2 = alloca ptr, align 8
  %3 = alloca ptr, align 8
  %4 = alloca ptr, align 8
  %5 = alloca ptr, align 8
  %6 = alloca i32, align 4
  %7 = alloca i32, align 4
  store ptr %0, ptr %3, align 8, !tbaa !9
  call void @llvm.lifetime.start.p0(i64 8, ptr %4) #7
  call void @llvm.lifetime.start.p0(i64 8, ptr %5) #7
  call void @llvm.lifetime.start.p0(i64 4, ptr %6) #7
  %8 = load ptr, ptr %3, align 8, !tbaa !9
  %9 = call i32 @Py_ReprEnter(ptr noundef %8)
  store i32 %9, ptr %6, align 4, !tbaa !12
  %10 = load i32, ptr %6, align 4, !tbaa !12
  %11 = icmp ne i32 %10, 0
  br i1 %11, label %12, label %22

12:                                               ; preds = %1
  %13 = load i32, ptr %6, align 4, !tbaa !12
  %14 = icmp slt i32 %13, 0
  br i1 %14, label %15, label %16

15:                                               ; preds = %12
  store ptr null, ptr %2, align 8
  store i32 1, ptr %7, align 4
  br label %39

16:                                               ; preds = %12
  %17 = load ptr, ptr %3, align 8, !tbaa !9
  %18 = call ptr @_Py_TYPE(ptr noundef %17)
  %19 = getelementptr inbounds nuw %struct._typeobject, ptr %18, i32 0, i32 1
  %20 = load ptr, ptr %19, align 8, !tbaa !21
  %21 = call ptr (ptr, ...) @PyUnicode_FromFormat(ptr noundef @.str.74, ptr noundef %20)
  store ptr %21, ptr %2, align 8
  store i32 1, ptr %7, align 4
  br label %39

22:                                               ; preds = %1
  %23 = load ptr, ptr %3, align 8, !tbaa !9
  %24 = getelementptr inbounds nuw %struct.itemgetterobject, ptr %23, i32 0, i32 1
  %25 = load i64, ptr %24, align 8, !tbaa !86
  %26 = icmp eq i64 %25, 1
  %27 = select i1 %26, ptr @.str.75, ptr @.str.76
  store ptr %27, ptr %5, align 8, !tbaa !39
  %28 = load ptr, ptr %5, align 8, !tbaa !39
  %29 = load ptr, ptr %3, align 8, !tbaa !9
  %30 = call ptr @_Py_TYPE(ptr noundef %29)
  %31 = getelementptr inbounds nuw %struct._typeobject, ptr %30, i32 0, i32 1
  %32 = load ptr, ptr %31, align 8, !tbaa !21
  %33 = load ptr, ptr %3, align 8, !tbaa !9
  %34 = getelementptr inbounds nuw %struct.itemgetterobject, ptr %33, i32 0, i32 2
  %35 = load ptr, ptr %34, align 8, !tbaa !84
  %36 = call ptr (ptr, ...) @PyUnicode_FromFormat(ptr noundef %28, ptr noundef %32, ptr noundef %35)
  store ptr %36, ptr %4, align 8, !tbaa !4
  %37 = load ptr, ptr %3, align 8, !tbaa !9
  call void @Py_ReprLeave(ptr noundef %37)
  %38 = load ptr, ptr %4, align 8, !tbaa !4
  store ptr %38, ptr %2, align 8
  store i32 1, ptr %7, align 4
  br label %39

39:                                               ; preds = %22, %16, %15
  call void @llvm.lifetime.end.p0(i64 4, ptr %6) #7
  call void @llvm.lifetime.end.p0(i64 8, ptr %5) #7
  call void @llvm.lifetime.end.p0(i64 8, ptr %4) #7
  %40 = load ptr, ptr %2, align 8
  ret ptr %40
}