; Function Attrs: nounwind uwtable
define internal ptr @itemgetter_repr(ptr noundef %0) #0 {
  %2 = tail call i32 @Py_ReprEnter(ptr noundef %0) #7
  %.not = icmp eq i32 %2, 0
  br i1 %.not, label %10, label %3

3:                                                ; preds = %1
  %4 = icmp slt i32 %2, 0
  br i1 %4, label %21, label %5

5:                                                ; preds = %3
  %6 = getelementptr i8, ptr %0, i64 8
  %.val11 = load ptr, ptr %6, align 8, !tbaa !19
  %7 = getelementptr inbounds nuw i8, ptr %.val11, i64 24
  %8 = load ptr, ptr %7, align 8, !tbaa !36
  %9 = tail call ptr (ptr, ...) @PyUnicode_FromFormat(ptr noundef nonnull @.str.74, ptr noundef %8) #7
  br label %21

10:                                               ; preds = %1
  %11 = getelementptr inbounds nuw i8, ptr %0, i64 16
  %12 = load i64, ptr %11, align 8, !tbaa !79
  %13 = icmp eq i64 %12, 1
  %14 = select i1 %13, ptr @.str.75, ptr @.str.76
  %15 = getelementptr i8, ptr %0, i64 8
  %.val = load ptr, ptr %15, align 8, !tbaa !19
  %16 = getelementptr inbounds nuw i8, ptr %.val, i64 24
  %17 = load ptr, ptr %16, align 8, !tbaa !36
  %18 = getelementptr inbounds nuw i8, ptr %0, i64 24
  %19 = load ptr, ptr %18, align 8, !tbaa !77
  %20 = tail call ptr (ptr, ...) @PyUnicode_FromFormat(ptr noundef nonnull %14, ptr noundef %17, ptr noundef %19) #7
  tail call void @Py_ReprLeave(ptr noundef %0) #7
  br label %21

21:                                               ; preds = %3, %10, %5
  %.0 = phi ptr [ %9, %5 ], [ %20, %10 ], [ null, %3 ]
  ret ptr %.0
}